; ModuleID = 'source-C-CXX/33/3261.c'
source_filename = "source-C-CXX/33/3261.c"
target datalayout = "e-m:e-p270:32:32-p271:32:32-p272:64:64-i64:64-f80:128-n8:16:32:64-S128"
target triple = "x86_64-pc-linux-gnu"

@.str = private unnamed_addr constant [3 x i8] c"%d\00", align 1
@.str.1 = private unnamed_addr constant [4 x i8] c"End\00", align 1
@.str.2 = private unnamed_addr constant [9 x i8] c"%d/2=%d\0A\00", align 1
@.str.3 = private unnamed_addr constant [11 x i8] c"%d*3+1=%d\0A\00", align 1

; Function Attrs: nofree nounwind sspstrong uwtable
define dso_local i32 @main() local_unnamed_addr #0 {
  %1 = alloca i32, align 4
  %2 = bitcast i32* %1 to i8*
  call void @llvm.lifetime.start.p0i8(i64 4, i8* nonnull %2) #3
  %3 = call i32 (i8*, ...) @__isoc99_scanf(i8* getelementptr inbounds ([3 x i8], [3 x i8]* @.str, i64 0, i64 0), i32* nonnull %1)
  %4 = load i32, i32* %1, align 4, !tbaa !5
  %5 = icmp eq i32 %4, 1
  br i1 %5, label %20, label %6

6:                                                ; preds = %0, %13
  %7 = phi i32 [ %14, %13 ], [ %4, %0 ]
  %8 = and i32 %7, 1
  %9 = icmp eq i32 %8, 0
  br i1 %9, label %10, label %16

10:                                               ; preds = %6
  %11 = sdiv i32 %7, 2
  %12 = call i32 (i8*, ...) @printf(i8* nonnull dereferenceable(1) getelementptr inbounds ([9 x i8], [9 x i8]* @.str.2, i64 0, i64 0), i32 %7, i32 %11) #3
  br label %13

13:                                               ; preds = %16, %10
  %14 = phi i32 [ %11, %10 ], [ %18, %16 ]
  %15 = icmp eq i32 %14, 1
  br i1 %15, label %20, label %6

16:                                               ; preds = %6
  %17 = mul nsw i32 %7, 3
  %18 = add nsw i32 %17, 1
  %19 = call i32 (i8*, ...) @printf(i8* nonnull dereferenceable(1) getelementptr inbounds ([11 x i8], [11 x i8]* @.str.3, i64 0, i64 0), i32 %7, i32 %18) #3
  br label %13

20:                                               ; preds = %13, %0
  %21 = call i32 (i8*, ...) @printf(i8* nonnull dereferenceable(1) getelementptr inbounds ([4 x i8], [4 x i8]* @.str.1, i64 0, i64 0)) #3
  call void @llvm.lifetime.end.p0i8(i64 4, i8* nonnull %2) #3
  ret i32 0
}

; Function Attrs: argmemonly mustprogress nofree nosync nounwind willreturn
declare void @llvm.lifetime.start.p0i8(i64 immarg, i8* nocapture) #1

; Function Attrs: nofree nounwind
declare noundef i32 @__isoc99_scanf(i8* nocapture noundef readonly, ...) local_unnamed_addr #2

; Function Attrs: nofree nounwind sspstrong uwtable
define dso_local void @jiaogu(i32 %0) local_unnamed_addr #0 {
  %2 = icmp eq i32 %0, 1
  br i1 %2, label %3, label %5

3:                                                ; preds = %12, %1
  %4 = tail call i32 (i8*, ...) @printf(i8* nonnull dereferenceable(1) getelementptr inbounds ([4 x i8], [4 x i8]* @.str.1, i64 0, i64 0))
  ret void

5:                                                ; preds = %1, %12
  %6 = phi i32 [ %13, %12 ], [ %0, %1 ]
  %7 = and i32 %6, 1
  %8 = icmp eq i32 %7, 0
  br i1 %8, label %9, label %15

9:                                                ; preds = %5
  %10 = sdiv i32 %6, 2
  %11 = tail call i32 (i8*, ...) @printf(i8* nonnull dereferenceable(1) getelementptr inbounds ([9 x i8], [9 x i8]* @.str.2, i64 0, i64 0), i32 %6, i32 %10) #3
  br label %12

12:                                               ; preds = %9, %15
  %13 = phi i32 [ %10, %9 ], [ %17, %15 ]
  %14 = icmp eq i32 %13, 1
  br i1 %14, label %3, label %5

15:                                               ; preds = %5
  %16 = mul nsw i32 %6, 3
  %17 = add nsw i32 %16, 1
  %18 = tail call i32 (i8*, ...) @printf(i8* nonnull dereferenceable(1) getelementptr inbounds ([11 x i8], [11 x i8]* @.str.3, i64 0, i64 0), i32 %6, i32 %17) #3
  br label %12
}

; Function Attrs: argmemonly mustprogress nofree nosync nounwind willreturn
declare void @llvm.lifetime.end.p0i8(i64 immarg, i8* nocapture) #1

; Function Attrs: nofree nounwind
declare noundef i32 @printf(i8* nocapture noundef readonly, ...) local_unnamed_addr #2

; Function Attrs: nofree nounwind sspstrong uwtable
define dso_local void @shizi(i32 %0) local_unnamed_addr #0 {
  %2 = and i32 %0, 1
  %3 = icmp eq i32 %2, 0
  br i1 %3, label %4, label %7

4:                                                ; preds = %1
  %5 = sdiv i32 %0, 2
  %6 = tail call i32 (i8*, ...) @printf(i8* nonnull dereferenceable(1) getelementptr inbounds ([9 x i8], [9 x i8]* @.str.2, i64 0, i64 0), i32 %0, i32 %5)
  br label %11

7:                                                ; preds = %1
  %8 = mul nsw i32 %0, 3
  %9 = add nsw i32 %8, 1
  %10 = tail call i32 (i8*, ...) @printf(i8* nonnull dereferenceable(1) getelementptr inbounds ([11 x i8], [11 x i8]* @.str.3, i64 0, i64 0), i32 %0, i32 %9)
  br label %11

11:                                               ; preds = %4, %7
  ret void
}


!llvm.module.flags = !{!0, !1, !2, !3}
!llvm.ident = !{!4}

!0 = !{i32 1, !"wchar_size", i32 4}
!1 = !{i32 7, !"PIC Level", i32 2}
!2 = !{i32 7, !"PIE Level", i32 2}
!3 = !{i32 7, !"uwtable", i32 1}
!4 = !{!"clang version 13.0.0"}
!5 = !{!6, !6, i64 0}
!6 = !{!"int", !7, i64 0}
!7 = !{!"omnipotent char", !8, i64 0}
!8 = !{!"Simple C/C++ TBAA"}
